; Function Attrs: nounwind sspstrong uwtable
define internal fastcc void @riscv_itrigger_update_count(ptr noundef %env) unnamed_addr #0 {
entry:
  %last_icount1 = getelementptr inbounds nuw i8, ptr %env, i64 8456
  %0 = load i64, ptr %last_icount1, align 8
  %call = tail call i64 @icount_get_raw() #8
  store i64 %call, ptr %last_icount1, align 8
  %tdata1.i = getelementptr inbounds nuw i8, ptr %env, i64 8360
  %1 = getelementptr i8, ptr %env, i64 5008
  %virt_enabled.i = getelementptr inbounds nuw i8, ptr %env, i64 5056
  %priv.i = getelementptr inbounds nuw i8, ptr %env, i64 5048
  %itrigger_timer = getelementptr inbounds nuw i8, ptr %env, i64 8440
  %sub = sub i64 %call, %0
  %conv11 = trunc i64 %sub to i32
  br label %for.body

for.body:                                         ; preds = %entry, %for.inc
  %cmp = phi i1 [ true, %entry ], [ false, %for.inc ]
  %indvars.iv = phi i64 [ 0, %entry ], [ 1, %for.inc ]
  %arrayidx.i = getelementptr [2 x i64], ptr %tdata1.i, i64 0, i64 %indvars.iv
  %2 = load i64, ptr %arrayidx.i, align 8
  %env.val.i = load i32, ptr %1, align 16
  switch i32 %env.val.i, label %do.body.i.i [
    i32 1, label %sw.bb.i.i
    i32 2, label %sw.bb3.i.i
    i32 3, label %sw.bb3.i.i
  ]

sw.bb.i.i:                                        ; preds = %for.body
  %shr.i.i.i = lshr i64 %2, 28
  %conv2.i.i = and i64 %shr.i.i.i, 15
  br label %get_trigger_type.exit

sw.bb3.i.i:                                       ; preds = %for.body, %for.body
  %shr.i2.i.i = lshr i64 %2, 60
  br label %get_trigger_type.exit

do.body.i.i:                                      ; preds = %for.body
  tail call void @g_assertion_message_expr(ptr noundef null, ptr noundef nonnull @.str, i32 noundef 87, ptr noundef nonnull @__func__.extract_trigger_type, ptr noundef null) #7
  unreachable

get_trigger_type.exit:                            ; preds = %sw.bb.i.i, %sw.bb3.i.i
  %retval.0.i.i = phi i64 [ %shr.i2.i.i, %sw.bb3.i.i ], [ %conv2.i.i, %sw.bb.i.i ]
  %cmp4.not = icmp eq i64 %retval.0.i.i, 3
  br i1 %cmp4.not, label %if.end, label %for.inc

if.end:                                           ; preds = %get_trigger_type.exit
  %3 = trunc i64 %2 to i32
  %4 = lshr i32 %3, 10
  %conv.i = and i32 %4, 16383
  %tobool.not = icmp eq i32 %conv.i, 0
  br i1 %tobool.not, label %for.inc, label %if.end8

if.end8:                                          ; preds = %if.end
  %5 = load i8, ptr %virt_enabled.i, align 16
  %tobool.i = trunc i8 %5 to i1
  %6 = load i64, ptr %priv.i, align 8
  br i1 %tobool.i, label %if.then.i, label %if.else.i

if.then.i:                                        ; preds = %if.end8
  %and.i = lshr i64 %2, 26
  %div15.i = and i64 %and.i, 1
  %cmp.i = icmp eq i64 %div15.i, %6
  %and2.i = lshr i64 %2, 25
  %div316.i = and i64 %and2.i, 1
  %cmp5.i = icmp eq i64 %div316.i, %6
  %7 = or i1 %cmp.i, %cmp5.i
  br i1 %7, label %if.then10, label %if.else

if.else.i:                                        ; preds = %if.end8
  %and6.i = lshr i64 %2, 9
  %div712.i = and i64 %and6.i, 1
  %cmp9.i = icmp eq i64 %div712.i, %6
  br i1 %cmp9.i, label %if.then10, label %lor.lhs.false.i

lor.lhs.false.i:                                  ; preds = %if.else.i
  %and10.i = lshr i64 %2, 7
  %div1113.i = and i64 %and10.i, 1
  %cmp13.i = icmp eq i64 %div1113.i, %6
  br i1 %cmp13.i, label %if.then10, label %check_itrigger_priv.exit

check_itrigger_priv.exit:                         ; preds = %lor.lhs.false.i
  %and15.i = lshr i64 %2, 6
  %div1614.i = and i64 %and15.i, 1
  %cmp18.i = icmp eq i64 %div1614.i, %6
  br i1 %cmp18.i, label %if.then10, label %if.else

if.then10:                                        ; preds = %if.else.i, %lor.lhs.false.i, %if.then.i, %check_itrigger_priv.exit
  %sub12 = sub i32 %conv.i, %conv11
  %and.i27 = and i64 %2, -16776193
  %conv.i28 = sext i32 %sub12 to i64
  %mul.i = shl nsw i64 %conv.i28, 10
  %and1.i = and i64 %mul.i, 16776192
  %or.i = or disjoint i64 %and1.i, %and.i27
  store i64 %or.i, ptr %arrayidx.i, align 8
  %cmp13 = icmp eq i32 %conv.i, %conv11
  br i1 %cmp13, label %if.then15, label %for.inc

if.then15:                                        ; preds = %if.then10
  tail call fastcc void @do_trigger_action(ptr noundef nonnull %env, i64 noundef %indvars.iv)
  br label %for.inc

if.else:                                          ; preds = %if.then.i, %check_itrigger_priv.exit
  %arrayidx = getelementptr [2 x ptr], ptr %itrigger_timer, i64 0, i64 %indvars.iv
  %8 = load ptr, ptr %arrayidx, align 8
  %conv18 = zext nneg i32 %conv.i to i64
  %add = add i64 %call, %conv18
  tail call void @timer_mod(ptr noundef %8, i64 noundef %add) #8
  br label %for.inc

for.inc:                                          ; preds = %if.else, %if.then15, %if.then10, %if.end, %get_trigger_type.exit
  br i1 %cmp, label %for.body, label %for.end, !llvm.loop !8

for.end:                                          ; preds = %for.inc
  ret void
}